; Function Attrs: nounwind sspstrong uwtable
define dso_local i64 @rb_class_attached_object(i64 noundef %0) local_unnamed_addr #0 {
  %2 = icmp eq i64 %0, 0
  %3 = and i64 %0, 7
  %4 = icmp ne i64 %3, 0
  %5 = or i1 %2, %4
  br i1 %5, label %RCLASS_SINGLETON_P.exit.thread, label %rbimpl_RB_TYPE_P_fastpath.exit.i

rbimpl_RB_TYPE_P_fastpath.exit.i:                 ; preds = %1
  %6 = inttoptr i64 %0 to ptr
  %7 = load i64, ptr %6, align 8, !tbaa !35
  %8 = and i64 %7, 8223
  %or.cond = icmp eq i64 %8, 8194
  br i1 %or.cond, label %10, label %RCLASS_SINGLETON_P.exit.thread

RCLASS_SINGLETON_P.exit.thread:                   ; preds = %1, %rbimpl_RB_TYPE_P_fastpath.exit.i
  %9 = load i64, ptr @rb_eTypeError, align 8, !tbaa !29
  tail call void (i64, ptr, ...) @rb_raise(i64 noundef %9, ptr noundef nonnull @.str.22, i64 noundef %0) #21
  unreachable

10:                                               ; preds = %rbimpl_RB_TYPE_P_fastpath.exit.i
  %11 = getelementptr inbounds nuw i8, ptr %6, i64 128
  %12 = load i64, ptr %11, align 8, !tbaa !32
  ret i64 %12
}